Certificate:
    Data:
        Version: 3 (0x2)
        Serial Number: 3 (0x3)
    Signature Algorithm: sha1WithRSAEncryption
        Issuer: C=SK, ST=NA, L=Nitra, O=Bakalaris, OU=changeme, CN=changeme/name=changeme/emailAddress=me@host.mydomain
        Validity
            Not Before: Sep 23 09:09:32 2014 GMT
            Not After : Sep 20 09:09:32 2024 GMT
        Subject: C=SK, ST=NA, L=Nitra, O=Bakalaris, OU=changeme, CN=client03/name=changeme/emailAddress=me@host.mydomain
        Subject Public Key Info:
            Public Key Algorithm: rsaEncryption
                Public-Key: (2048 bit)
                Modulus:
                    00:d9:06:a4:47:84:ca:07:21:03:3a:ef:fd:9f:17:
                    11:79:54:4c:23:78:11:c4:d4:61:94:e3:47:a1:4d:
                    51:71:0b:cf:a0:b2:90:aa:c2:07:ad:bf:22:f6:67:
                    a5:fe:97:10:1d:b1:76:b8:f3:51:81:60:61:5e:a4:
                    47:7b:03:39:61:68:4a:4f:dd:14:c3:0b:d6:d3:c2:
                    b8:88:4d:57:4d:ae:7a:a1:70:e0:d3:06:86:a5:f8:
                    a0:bd:df:a0:7d:e9:24:41:05:0c:2d:c3:80:a5:e4:
                    da:df:54:8a:aa:d9:ea:5f:4f:e5:fe:81:c6:b4:35:
                    01:25:ac:00:32:e2:46:6b:33:30:cf:85:63:ae:d6:
                    4b:fd:ce:e1:92:9f:35:f4:ab:de:0b:4c:3d:00:e5:
                    80:8b:b1:ab:0e:a8:5c:a7:56:2c:d6:92:f9:5d:a6:
                    f3:c8:5d:bb:85:68:c2:28:07:5d:a4:7f:7c:08:ec:
                    20:f5:50:4c:de:d4:1e:62:e5:be:af:74:73:49:0a:
                    7f:cd:57:9d:f8:1b:4c:79:0f:bb:12:ae:81:e6:e0:
                    b4:95:cc:9f:29:cc:d4:a2:a1:7b:cf:85:e9:e1:72:
                    af:b6:44:b8:17:e5:88:fa:b5:b9:70:1f:77:c3:c9:
                    97:dd:a6:e6:cd:3f:a2:17:81:29:f5:7a:2e:dc:71:
                    b9:95
                Exponent: 65537 (0x10001)
        X509v3 extensions:
            X509v3 Basic Constraints: 
                CA:FALSE
            Netscape Comment: 
                Easy-RSA Generated Certificate
            X509v3 Subject Key Identifier: 
                45:54:EB:C9:6A:27:28:DF:AE:CB:98:5F:6E:BA:27:07:41:BE:4E:16
            X509v3 Authority Key Identifier: 
                keyid:AE:2B:DB:C6:D9:F1:5E:CE:07:ED:65:3E:9E:95:3F:4D:D9:B6:00:A7
                DirName:/C=SK/ST=NA/L=Nitra/O=Bakalaris/OU=changeme/CN=changeme/name=changeme/emailAddress=me@host.mydomain
                serial:EB:D3:8E:72:5B:68:DB:0A

            X509v3 Extended Key Usage: 
                TLS Web Client Authentication
            X509v3 Key Usage: 
                Digital Signature
    Signature Algorithm: sha1WithRSAEncryption
         0e:1b:c9:6b:6f:d3:4c:36:0e:a2:94:0b:77:2b:ca:ea:61:ae:
         69:44:2b:09:76:f9:19:68:2e:e4:9d:33:04:d6:8e:53:02:8c:
         67:1e:5c:67:48:91:d7:05:6a:4e:90:b2:81:7a:57:1c:b8:62:
         7a:cc:86:db:72:fb:c1:42:ed:51:53:44:20:e6:09:2b:75:59:
         bc:05:74:24:c5:e7:b8:07:35:5c:b1:84:25:d1:ca:6e:51:9d:
         f3:36:73:2a:e9:09:a6:f3:fe:d6:f9:87:48:9d:80:30:c2:61:
         39:ad:67:54:1a:9f:2e:e5:4e:8d:a1:8b:b0:18:00:2d:81:28:
         48:fd:b1:0c:ba:c9:2d:4d:9b:c7:55:7d:f6:0d:e1:63:d5:a5:
         a9:0b:89:66:1a:4f:93:f9:0c:37:b2:22:10:d7:62:ad:35:f0:
         a1:da:7d:37:87:b9:dc:b7:95:cc:6c:96:c9:04:45:12:f6:21:
         9d:02:b3:82:79:ca:13:9d:0a:13:96:08:52:6d:5d:69:54:f1:
         2b:80:11:18:fb:17:96:b1:01:b9:84:a8:cb:00:a9:3f:3b:61:
         4a:68:8a:ac:49:67:4b:94:58:09:f2:9a:2d:33:fb:66:81:41:
         41:b5:ad:66:43:eb:a8:f3:c8:18:e7:c0:5d:62:a5:68:f2:6f:
         36:9f:86:9b
-----BEGIN CERTIFICATE-----
MIIE/jCCA+agAwIBAgIBAzANBgkqhkiG9w0BAQUFADCBmDELMAkGA1UEBhMCU0sx
CzAJBgNVBAgTAk5BMQ4wDAYDVQQHEwVOaXRyYTESMBAGA1UEChMJQmFrYWxhcmlz
MREwDwYDVQQLEwhjaGFuZ2VtZTERMA8GA1UEAxMIY2hhbmdlbWUxETAPBgNVBCkT
CGNoYW5nZW1lMR8wHQYJKoZIhvcNAQkBFhBtZUBob3N0Lm15ZG9tYWluMB4XDTE0
MDkyMzA5MDkzMloXDTI0MDkyMDA5MDkzMlowgZgxCzAJBgNVBAYTAlNLMQswCQYD
VQQIEwJOQTEOMAwGA1UEBxMFTml0cmExEjAQBgNVBAoTCUJha2FsYXJpczERMA8G
A1UECxMIY2hhbmdlbWUxETAPBgNVBAMTCGNsaWVudDAzMREwDwYDVQQpEwhjaGFu
Z2VtZTEfMB0GCSqGSIb3DQEJARYQbWVAaG9zdC5teWRvbWFpbjCCASIwDQYJKoZI
hvcNAQEBBQADggEPADCCAQoCggEBANkGpEeEygchAzrv/Z8XEXlUTCN4EcTUYZTj
R6FNUXELz6CykKrCB62/IvZnpf6XEB2xdrjzUYFgYV6kR3sDOWFoSk/dFMML1tPC
uIhNV02ueqFw4NMGhqX4oL3foH3pJEEFDC3DgKXk2t9UiqrZ6l9P5f6BxrQ1ASWs
ADLiRmszMM+FY67WS/3O4ZKfNfSr3gtMPQDlgIuxqw6oXKdWLNaS+V2m88hdu4Vo
wigHXaR/fAjsIPVQTN7UHmLlvq90c0kKf81XnfgbTHkPuxKugebgtJXMnynM1KKh
e8+F6eFyr7ZEuBfliPq1uXAfd8PJl92m5s0/oheBKfV6LtxxuZUCAwEAAaOCAU8w
ggFLMAkGA1UdEwQCMAAwLQYJYIZIAYb4QgENBCAWHkVhc3ktUlNBIEdlbmVyYXRl
ZCBDZXJ0aWZpY2F0ZTAdBgNVHQ4EFgQURVTryWonKN+uy5hfbronB0G+ThYwgc0G
A1UdIwSBxTCBwoAUrivbxtnxXs4H7WU+npU/Tdm2AKehgZ6kgZswgZgxCzAJBgNV
BAYTAlNLMQswCQYDVQQIEwJOQTEOMAwGA1UEBxMFTml0cmExEjAQBgNVBAoTCUJh
a2FsYXJpczERMA8GA1UECxMIY2hhbmdlbWUxETAPBgNVBAMTCGNoYW5nZW1lMREw
DwYDVQQpEwhjaGFuZ2VtZTEfMB0GCSqGSIb3DQEJARYQbWVAaG9zdC5teWRvbWFp
boIJAOvTjnJbaNsKMBMGA1UdJQQMMAoGCCsGAQUFBwMCMAsGA1UdDwQEAwIHgDAN
BgkqhkiG9w0BAQUFAAOCAQEADhvJa2/TTDYOopQLdyvK6mGuaUQrCXb5GWgu5J0z
BNaOUwKMZx5cZ0iR1wVqTpCygXpXHLhiesyG23L7wULtUVNEIOYJK3VZvAV0JMXn
uAc1XLGEJdHKblGd8zZzKukJpvP+1vmHSJ2AMMJhOa1nVBqfLuVOjaGLsBgALYEo
SP2xDLrJLU2bx1V99g3hY9WlqQuJZhpPk/kMN7IiENdirTXwodp9N4e53LeVzGyW
yQRFEvYhnQKzgnnKE50KE5YIUm1daVTxK4ARGPsXlrEBuYSoywCpPzthSmiKrEln
S5RYCfKaLTP7ZoFBQbWtZkPrqPPIGOfAXWKlaPJvNp+Gmw==
-----END CERTIFICATE-----
